; Function Attrs: mustprogress nounwind uwtable
define hidden void @_ZN29jvmtiDeferredLocalVariableSetC2EP6MethodiPli(ptr nocapture noundef nonnull writeonly align 8 dereferenceable(41) %0, ptr noundef %1, i32 noundef %2, ptr noundef %3, i32 noundef %4) unnamed_addr #0 align 2 {
  store ptr %1, ptr %0, align 8
  %6 = getelementptr inbounds i8, ptr %0, i64 8
  store i32 %2, ptr %6, align 8
  %7 = getelementptr inbounds i8, ptr %0, i64 16
  store ptr %3, ptr %7, align 8
  %8 = getelementptr inbounds i8, ptr %0, i64 24
  store i32 %4, ptr %8, align 8
  %9 = tail call noundef ptr @_ZN6AnyObjnwEm8MEMFLAGS(i64 noundef 24, i8 noundef zeroext 7) #11
  %10 = icmp eq ptr %9, null
  br i1 %10, label %16, label %11

11:                                               ; preds = %5
  %12 = tail call noundef ptr @_ZN27GrowableArrayCHeapAllocator8allocateEii8MEMFLAGS(i32 noundef 1, i32 noundef 8, i8 noundef zeroext 7) #11
  store i32 0, ptr %9, align 4
  %13 = getelementptr inbounds i8, ptr %9, i64 4
  store i32 1, ptr %13, align 4
  %14 = getelementptr inbounds i8, ptr %9, i64 8
  store ptr %12, ptr %14, align 8
  store i64 0, ptr %12, align 8
  %15 = getelementptr inbounds i8, ptr %9, i64 16
  store i64 15, ptr %15, align 8
  br label %16

16:                                               ; preds = %11, %5
  %17 = getelementptr inbounds i8, ptr %0, i64 32
  store ptr %9, ptr %17, align 8
  %18 = getelementptr inbounds i8, ptr %0, i64 40
  store i8 0, ptr %18, align 8
  ret void
}